target datalayout = "e-m:e-p270:32:32-p271:32:32-p272:64:64-i64:64-i128:128-f80:128-n8:16:32:64-S128"
target triple = "x86_64-pc-linux-gnu"

; Function Attrs: inlinehint nounwind uwtable
define internal i32 @pix_abs16_c(ptr noundef %0, ptr noundef %1, ptr noundef %2, i64 noundef %3, i32 noundef %4) #5 {
  %6 = alloca ptr, align 8
  %7 = alloca ptr, align 8
  %8 = alloca ptr, align 8
  %9 = alloca i64, align 8
  %10 = alloca i32, align 4
  %11 = alloca i32, align 4
  %12 = alloca i32, align 4
  store ptr %0, ptr %6, align 8, !tbaa !22
  store ptr %1, ptr %7, align 8, !tbaa !24
  store ptr %2, ptr %8, align 8, !tbaa !24
  store i64 %3, ptr %9, align 8, !tbaa !26
  store i32 %4, ptr %10, align 4, !tbaa !11
  call void @llvm.lifetime.start.p0(i64 4, ptr %11) #9
  store i32 0, ptr %11, align 4, !tbaa !11
  call void @llvm.lifetime.start.p0(i64 4, ptr %12) #9
  store i32 0, ptr %12, align 4, !tbaa !11
  br label %13

13:                                               ; preds = %216, %5
  %14 = load i32, ptr %12, align 4, !tbaa !11
  %15 = load i32, ptr %10, align 4, !tbaa !11
  %16 = icmp slt i32 %14, %15
  br i1 %16, label %17, label %219

17:                                               ; preds = %13
  %18 = load ptr, ptr %7, align 8, !tbaa !24
  %19 = getelementptr inbounds i8, ptr %18, i64 0
  %20 = load i8, ptr %19, align 1, !tbaa !36
  %21 = zext i8 %20 to i32
  %22 = load ptr, ptr %8, align 8, !tbaa !24
  %23 = getelementptr inbounds i8, ptr %22, i64 0
  %24 = load i8, ptr %23, align 1, !tbaa !36
  %25 = zext i8 %24 to i32
  %26 = sub nsw i32 %21, %25
  %27 = call i32 @llvm.abs.i32(i32 %26, i1 true)
  %28 = load i32, ptr %11, align 4, !tbaa !11
  %29 = add nsw i32 %28, %27
  store i32 %29, ptr %11, align 4, !tbaa !11
  %30 = load ptr, ptr %7, align 8, !tbaa !24
  %31 = getelementptr inbounds i8, ptr %30, i64 1
  %32 = load i8, ptr %31, align 1, !tbaa !36
  %33 = zext i8 %32 to i32
  %34 = load ptr, ptr %8, align 8, !tbaa !24
  %35 = getelementptr inbounds i8, ptr %34, i64 1
  %36 = load i8, ptr %35, align 1, !tbaa !36
  %37 = zext i8 %36 to i32
  %38 = sub nsw i32 %33, %37
  %39 = call i32 @llvm.abs.i32(i32 %38, i1 true)
  %40 = load i32, ptr %11, align 4, !tbaa !11
  %41 = add nsw i32 %40, %39
  store i32 %41, ptr %11, align 4, !tbaa !11
  %42 = load ptr, ptr %7, align 8, !tbaa !24
  %43 = getelementptr inbounds i8, ptr %42, i64 2
  %44 = load i8, ptr %43, align 1, !tbaa !36
  %45 = zext i8 %44 to i32
  %46 = load ptr, ptr %8, align 8, !tbaa !24
  %47 = getelementptr inbounds i8, ptr %46, i64 2
  %48 = load i8, ptr %47, align 1, !tbaa !36
  %49 = zext i8 %48 to i32
  %50 = sub nsw i32 %45, %49
  %51 = call i32 @llvm.abs.i32(i32 %50, i1 true)
  %52 = load i32, ptr %11, align 4, !tbaa !11
  %53 = add nsw i32 %52, %51
  store i32 %53, ptr %11, align 4, !tbaa !11
  %54 = load ptr, ptr %7, align 8, !tbaa !24
  %55 = getelementptr inbounds i8, ptr %54, i64 3
  %56 = load i8, ptr %55, align 1, !tbaa !36
  %57 = zext i8 %56 to i32
  %58 = load ptr, ptr %8, align 8, !tbaa !24
  %59 = getelementptr inbounds i8, ptr %58, i64 3
  %60 = load i8, ptr %59, align 1, !tbaa !36
  %61 = zext i8 %60 to i32
  %62 = sub nsw i32 %57, %61
  %63 = call i32 @llvm.abs.i32(i32 %62, i1 true)
  %64 = load i32, ptr %11, align 4, !tbaa !11
  %65 = add nsw i32 %64, %63
  store i32 %65, ptr %11, align 4, !tbaa !11
  %66 = load ptr, ptr %7, align 8, !tbaa !24
  %67 = getelementptr inbounds i8, ptr %66, i64 4
  %68 = load i8, ptr %67, align 1, !tbaa !36
  %69 = zext i8 %68 to i32
  %70 = load ptr, ptr %8, align 8, !tbaa !24
  %71 = getelementptr inbounds i8, ptr %70, i64 4
  %72 = load i8, ptr %71, align 1, !tbaa !36
  %73 = zext i8 %72 to i32
  %74 = sub nsw i32 %69, %73
  %75 = call i32 @llvm.abs.i32(i32 %74, i1 true)
  %76 = load i32, ptr %11, align 4, !tbaa !11
  %77 = add nsw i32 %76, %75
  store i32 %77, ptr %11, align 4, !tbaa !11
  %78 = load ptr, ptr %7, align 8, !tbaa !24
  %79 = getelementptr inbounds i8, ptr %78, i64 5
  %80 = load i8, ptr %79, align 1, !tbaa !36
  %81 = zext i8 %80 to i32
  %82 = load ptr, ptr %8, align 8, !tbaa !24
  %83 = getelementptr inbounds i8, ptr %82, i64 5
  %84 = load i8, ptr %83, align 1, !tbaa !36
  %85 = zext i8 %84 to i32
  %86 = sub nsw i32 %81, %85
  %87 = call i32 @llvm.abs.i32(i32 %86, i1 true)
  %88 = load i32, ptr %11, align 4, !tbaa !11
  %89 = add nsw i32 %88, %87
  store i32 %89, ptr %11, align 4, !tbaa !11
  %90 = load ptr, ptr %7, align 8, !tbaa !24
  %91 = getelementptr inbounds i8, ptr %90, i64 6
  %92 = load i8, ptr %91, align 1, !tbaa !36
  %93 = zext i8 %92 to i32
  %94 = load ptr, ptr %8, align 8, !tbaa !24
  %95 = getelementptr inbounds i8, ptr %94, i64 6
  %96 = load i8, ptr %95, align 1, !tbaa !36
  %97 = zext i8 %96 to i32
  %98 = sub nsw i32 %93, %97
  %99 = call i32 @llvm.abs.i32(i32 %98, i1 true)
  %100 = load i32, ptr %11, align 4, !tbaa !11
  %101 = add nsw i32 %100, %99
  store i32 %101, ptr %11, align 4, !tbaa !11
  %102 = load ptr, ptr %7, align 8, !tbaa !24
  %103 = getelementptr inbounds i8, ptr %102, i64 7
  %104 = load i8, ptr %103, align 1, !tbaa !36
  %105 = zext i8 %104 to i32
  %106 = load ptr, ptr %8, align 8, !tbaa !24
  %107 = getelementptr inbounds i8, ptr %106, i64 7
  %108 = load i8, ptr %107, align 1, !tbaa !36
  %109 = zext i8 %108 to i32
  %110 = sub nsw i32 %105, %109
  %111 = call i32 @llvm.abs.i32(i32 %110, i1 true)
  %112 = load i32, ptr %11, align 4, !tbaa !11
  %113 = add nsw i32 %112, %111
  store i32 %113, ptr %11, align 4, !tbaa !11
  %114 = load ptr, ptr %7, align 8, !tbaa !24
  %115 = getelementptr inbounds i8, ptr %114, i64 8
  %116 = load i8, ptr %115, align 1, !tbaa !36
  %117 = zext i8 %116 to i32
  %118 = load ptr, ptr %8, align 8, !tbaa !24
  %119 = getelementptr inbounds i8, ptr %118, i64 8
  %120 = load i8, ptr %119, align 1, !tbaa !36
  %121 = zext i8 %120 to i32
  %122 = sub nsw i32 %117, %121
  %123 = call i32 @llvm.abs.i32(i32 %122, i1 true)
  %124 = load i32, ptr %11, align 4, !tbaa !11
  %125 = add nsw i32 %124, %123
  store i32 %125, ptr %11, align 4, !tbaa !11
  %126 = load ptr, ptr %7, align 8, !tbaa !24
  %127 = getelementptr inbounds i8, ptr %126, i64 9
  %128 = load i8, ptr %127, align 1, !tbaa !36
  %129 = zext i8 %128 to i32
  %130 = load ptr, ptr %8, align 8, !tbaa !24
  %131 = getelementptr inbounds i8, ptr %130, i64 9
  %132 = load i8, ptr %131, align 1, !tbaa !36
  %133 = zext i8 %132 to i32
  %134 = sub nsw i32 %129, %133
  %135 = call i32 @llvm.abs.i32(i32 %134, i1 true)
  %136 = load i32, ptr %11, align 4, !tbaa !11
  %137 = add nsw i32 %136, %135
  store i32 %137, ptr %11, align 4, !tbaa !11
  %138 = load ptr, ptr %7, align 8, !tbaa !24
  %139 = getelementptr inbounds i8, ptr %138, i64 10
  %140 = load i8, ptr %139, align 1, !tbaa !36
  %141 = zext i8 %140 to i32
  %142 = load ptr, ptr %8, align 8, !tbaa !24
  %143 = getelementptr inbounds i8, ptr %142, i64 10
  %144 = load i8, ptr %143, align 1, !tbaa !36
  %145 = zext i8 %144 to i32
  %146 = sub nsw i32 %141, %145
  %147 = call i32 @llvm.abs.i32(i32 %146, i1 true)
  %148 = load i32, ptr %11, align 4, !tbaa !11
  %149 = add nsw i32 %148, %147
  store i32 %149, ptr %11, align 4, !tbaa !11
  %150 = load ptr, ptr %7, align 8, !tbaa !24
  %151 = getelementptr inbounds i8, ptr %150, i64 11
  %152 = load i8, ptr %151, align 1, !tbaa !36
  %153 = zext i8 %152 to i32
  %154 = load ptr, ptr %8, align 8, !tbaa !24
  %155 = getelementptr inbounds i8, ptr %154, i64 11
  %156 = load i8, ptr %155, align 1, !tbaa !36
  %157 = zext i8 %156 to i32
  %158 = sub nsw i32 %153, %157
  %159 = call i32 @llvm.abs.i32(i32 %158, i1 true)
  %160 = load i32, ptr %11, align 4, !tbaa !11
  %161 = add nsw i32 %160, %159
  store i32 %161, ptr %11, align 4, !tbaa !11
  %162 = load ptr, ptr %7, align 8, !tbaa !24
  %163 = getelementptr inbounds i8, ptr %162, i64 12
  %164 = load i8, ptr %163, align 1, !tbaa !36
  %165 = zext i8 %164 to i32
  %166 = load ptr, ptr %8, align 8, !tbaa !24
  %167 = getelementptr inbounds i8, ptr %166, i64 12
  %168 = load i8, ptr %167, align 1, !tbaa !36
  %169 = zext i8 %168 to i32
  %170 = sub nsw i32 %165, %169
  %171 = call i32 @llvm.abs.i32(i32 %170, i1 true)
  %172 = load i32, ptr %11, align 4, !tbaa !11
  %173 = add nsw i32 %172, %171
  store i32 %173, ptr %11, align 4, !tbaa !11
  %174 = load ptr, ptr %7, align 8, !tbaa !24
  %175 = getelementptr inbounds i8, ptr %174, i64 13
  %176 = load i8, ptr %175, align 1, !tbaa !36
  %177 = zext i8 %176 to i32
  %178 = load ptr, ptr %8, align 8, !tbaa !24
  %179 = getelementptr inbounds i8, ptr %178, i64 13
  %180 = load i8, ptr %179, align 1, !tbaa !36
  %181 = zext i8 %180 to i32
  %182 = sub nsw i32 %177, %181
  %183 = call i32 @llvm.abs.i32(i32 %182, i1 true)
  %184 = load i32, ptr %11, align 4, !tbaa !11
  %185 = add nsw i32 %184, %183
  store i32 %185, ptr %11, align 4, !tbaa !11
  %186 = load ptr, ptr %7, align 8, !tbaa !24
  %187 = getelementptr inbounds i8, ptr %186, i64 14
  %188 = load i8, ptr %187, align 1, !tbaa !36
  %189 = zext i8 %188 to i32
  %190 = load ptr, ptr %8, align 8, !tbaa !24
  %191 = getelementptr inbounds i8, ptr %190, i64 14
  %192 = load i8, ptr %191, align 1, !tbaa !36
  %193 = zext i8 %192 to i32
  %194 = sub nsw i32 %189, %193
  %195 = call i32 @llvm.abs.i32(i32 %194, i1 true)
  %196 = load i32, ptr %11, align 4, !tbaa !11
  %197 = add nsw i32 %196, %195
  store i32 %197, ptr %11, align 4, !tbaa !11
  %198 = load ptr, ptr %7, align 8, !tbaa !24
  %199 = getelementptr inbounds i8, ptr %198, i64 15
  %200 = load i8, ptr %199, align 1, !tbaa !36
  %201 = zext i8 %200 to i32
  %202 = load ptr, ptr %8, align 8, !tbaa !24
  %203 = getelementptr inbounds i8, ptr %202, i64 15
  %204 = load i8, ptr %203, align 1, !tbaa !36
  %205 = zext i8 %204 to i32
  %206 = sub nsw i32 %201, %205
  %207 = call i32 @llvm.abs.i32(i32 %206, i1 true)
  %208 = load i32, ptr %11, align 4, !tbaa !11
  %209 = add nsw i32 %208, %207
  store i32 %209, ptr %11, align 4, !tbaa !11
  %210 = load i64, ptr %9, align 8, !tbaa !26
  %211 = load ptr, ptr %7, align 8, !tbaa !24
  %212 = getelementptr inbounds i8, ptr %211, i64 %210
  store ptr %212, ptr %7, align 8, !tbaa !24
  %213 = load i64, ptr %9, align 8, !tbaa !26
  %214 = load ptr, ptr %8, align 8, !tbaa !24
  %215 = getelementptr inbounds i8, ptr %214, i64 %213
  store ptr %215, ptr %8, align 8, !tbaa !24
  br label %216

216:                                              ; preds = %17
  %217 = load i32, ptr %12, align 4, !tbaa !11
  %218 = add nsw i32 %217, 1
  store i32 %218, ptr %12, align 4, !tbaa !11
  br label %13, !llvm.loop !37

219:                                              ; preds = %13
  %220 = load i32, ptr %11, align 4, !tbaa !11
  call void @llvm.lifetime.end.p0(i64 4, ptr %12) #9
  call void @llvm.lifetime.end.p0(i64 4, ptr %11) #9
  ret i32 %220
}