; Function Attrs: inlinehint nofree norecurse nosync nounwind memory(argmem: read) uwtable
define internal i32 @pix_abs16_c(ptr readnone captures(none) %0, ptr noundef readonly captures(none) %1, ptr noundef readonly captures(none) %2, i64 noundef %3, i32 noundef %4) #6 {
  %6 = icmp sgt i32 %4, 0
  br i1 %6, label %.lr.ph, label %._crit_edge

.lr.ph:                                           ; preds = %5, %.lr.ph
  %.061 = phi i32 [ %151, %.lr.ph ], [ 0, %5 ]
  %.05560 = phi i32 [ %148, %.lr.ph ], [ 0, %5 ]
  %.05659 = phi ptr [ %149, %.lr.ph ], [ %1, %5 ]
  %.05758 = phi ptr [ %150, %.lr.ph ], [ %2, %5 ]
  %7 = load i8, ptr %.05659, align 1, !tbaa !20
  %8 = zext i8 %7 to i32
  %9 = load i8, ptr %.05758, align 1, !tbaa !20
  %10 = zext i8 %9 to i32
  %11 = sub nsw i32 %8, %10
  %12 = tail call i32 @llvm.abs.i32(i32 %11, i1 true)
  %13 = add nsw i32 %12, %.05560
  %14 = getelementptr inbounds nuw i8, ptr %.05659, i64 1
  %15 = load i8, ptr %14, align 1, !tbaa !20
  %16 = zext i8 %15 to i32
  %17 = getelementptr inbounds nuw i8, ptr %.05758, i64 1
  %18 = load i8, ptr %17, align 1, !tbaa !20
  %19 = zext i8 %18 to i32
  %20 = sub nsw i32 %16, %19
  %21 = tail call i32 @llvm.abs.i32(i32 %20, i1 true)
  %22 = add nsw i32 %13, %21
  %23 = getelementptr inbounds nuw i8, ptr %.05659, i64 2
  %24 = load i8, ptr %23, align 1, !tbaa !20
  %25 = zext i8 %24 to i32
  %26 = getelementptr inbounds nuw i8, ptr %.05758, i64 2
  %27 = load i8, ptr %26, align 1, !tbaa !20
  %28 = zext i8 %27 to i32
  %29 = sub nsw i32 %25, %28
  %30 = tail call i32 @llvm.abs.i32(i32 %29, i1 true)
  %31 = add nsw i32 %22, %30
  %32 = getelementptr inbounds nuw i8, ptr %.05659, i64 3
  %33 = load i8, ptr %32, align 1, !tbaa !20
  %34 = zext i8 %33 to i32
  %35 = getelementptr inbounds nuw i8, ptr %.05758, i64 3
  %36 = load i8, ptr %35, align 1, !tbaa !20
  %37 = zext i8 %36 to i32
  %38 = sub nsw i32 %34, %37
  %39 = tail call i32 @llvm.abs.i32(i32 %38, i1 true)
  %40 = add nsw i32 %31, %39
  %41 = getelementptr inbounds nuw i8, ptr %.05659, i64 4
  %42 = load i8, ptr %41, align 1, !tbaa !20
  %43 = zext i8 %42 to i32
  %44 = getelementptr inbounds nuw i8, ptr %.05758, i64 4
  %45 = load i8, ptr %44, align 1, !tbaa !20
  %46 = zext i8 %45 to i32
  %47 = sub nsw i32 %43, %46
  %48 = tail call i32 @llvm.abs.i32(i32 %47, i1 true)
  %49 = add nsw i32 %40, %48
  %50 = getelementptr inbounds nuw i8, ptr %.05659, i64 5
  %51 = load i8, ptr %50, align 1, !tbaa !20
  %52 = zext i8 %51 to i32
  %53 = getelementptr inbounds nuw i8, ptr %.05758, i64 5
  %54 = load i8, ptr %53, align 1, !tbaa !20
  %55 = zext i8 %54 to i32
  %56 = sub nsw i32 %52, %55
  %57 = tail call i32 @llvm.abs.i32(i32 %56, i1 true)
  %58 = add nsw i32 %49, %57
  %59 = getelementptr inbounds nuw i8, ptr %.05659, i64 6
  %60 = load i8, ptr %59, align 1, !tbaa !20
  %61 = zext i8 %60 to i32
  %62 = getelementptr inbounds nuw i8, ptr %.05758, i64 6
  %63 = load i8, ptr %62, align 1, !tbaa !20
  %64 = zext i8 %63 to i32
  %65 = sub nsw i32 %61, %64
  %66 = tail call i32 @llvm.abs.i32(i32 %65, i1 true)
  %67 = add nsw i32 %58, %66
  %68 = getelementptr inbounds nuw i8, ptr %.05659, i64 7
  %69 = load i8, ptr %68, align 1, !tbaa !20
  %70 = zext i8 %69 to i32
  %71 = getelementptr inbounds nuw i8, ptr %.05758, i64 7
  %72 = load i8, ptr %71, align 1, !tbaa !20
  %73 = zext i8 %72 to i32
  %74 = sub nsw i32 %70, %73
  %75 = tail call i32 @llvm.abs.i32(i32 %74, i1 true)
  %76 = add nsw i32 %67, %75
  %77 = getelementptr inbounds nuw i8, ptr %.05659, i64 8
  %78 = load i8, ptr %77, align 1, !tbaa !20
  %79 = zext i8 %78 to i32
  %80 = getelementptr inbounds nuw i8, ptr %.05758, i64 8
  %81 = load i8, ptr %80, align 1, !tbaa !20
  %82 = zext i8 %81 to i32
  %83 = sub nsw i32 %79, %82
  %84 = tail call i32 @llvm.abs.i32(i32 %83, i1 true)
  %85 = add nsw i32 %76, %84
  %86 = getelementptr inbounds nuw i8, ptr %.05659, i64 9
  %87 = load i8, ptr %86, align 1, !tbaa !20
  %88 = zext i8 %87 to i32
  %89 = getelementptr inbounds nuw i8, ptr %.05758, i64 9
  %90 = load i8, ptr %89, align 1, !tbaa !20
  %91 = zext i8 %90 to i32
  %92 = sub nsw i32 %88, %91
  %93 = tail call i32 @llvm.abs.i32(i32 %92, i1 true)
  %94 = add nsw i32 %85, %93
  %95 = getelementptr inbounds nuw i8, ptr %.05659, i64 10
  %96 = load i8, ptr %95, align 1, !tbaa !20
  %97 = zext i8 %96 to i32
  %98 = getelementptr inbounds nuw i8, ptr %.05758, i64 10
  %99 = load i8, ptr %98, align 1, !tbaa !20
  %100 = zext i8 %99 to i32
  %101 = sub nsw i32 %97, %100
  %102 = tail call i32 @llvm.abs.i32(i32 %101, i1 true)
  %103 = add nsw i32 %94, %102
  %104 = getelementptr inbounds nuw i8, ptr %.05659, i64 11
  %105 = load i8, ptr %104, align 1, !tbaa !20
  %106 = zext i8 %105 to i32
  %107 = getelementptr inbounds nuw i8, ptr %.05758, i64 11
  %108 = load i8, ptr %107, align 1, !tbaa !20
  %109 = zext i8 %108 to i32
  %110 = sub nsw i32 %106, %109
  %111 = tail call i32 @llvm.abs.i32(i32 %110, i1 true)
  %112 = add nsw i32 %103, %111
  %113 = getelementptr inbounds nuw i8, ptr %.05659, i64 12
  %114 = load i8, ptr %113, align 1, !tbaa !20
  %115 = zext i8 %114 to i32
  %116 = getelementptr inbounds nuw i8, ptr %.05758, i64 12
  %117 = load i8, ptr %116, align 1, !tbaa !20
  %118 = zext i8 %117 to i32
  %119 = sub nsw i32 %115, %118
  %120 = tail call i32 @llvm.abs.i32(i32 %119, i1 true)
  %121 = add nsw i32 %112, %120
  %122 = getelementptr inbounds nuw i8, ptr %.05659, i64 13
  %123 = load i8, ptr %122, align 1, !tbaa !20
  %124 = zext i8 %123 to i32
  %125 = getelementptr inbounds nuw i8, ptr %.05758, i64 13
  %126 = load i8, ptr %125, align 1, !tbaa !20
  %127 = zext i8 %126 to i32
  %128 = sub nsw i32 %124, %127
  %129 = tail call i32 @llvm.abs.i32(i32 %128, i1 true)
  %130 = add nsw i32 %121, %129
  %131 = getelementptr inbounds nuw i8, ptr %.05659, i64 14
  %132 = load i8, ptr %131, align 1, !tbaa !20
  %133 = zext i8 %132 to i32
  %134 = getelementptr inbounds nuw i8, ptr %.05758, i64 14
  %135 = load i8, ptr %134, align 1, !tbaa !20
  %136 = zext i8 %135 to i32
  %137 = sub nsw i32 %133, %136
  %138 = tail call i32 @llvm.abs.i32(i32 %137, i1 true)
  %139 = add nsw i32 %130, %138
  %140 = getelementptr inbounds nuw i8, ptr %.05659, i64 15
  %141 = load i8, ptr %140, align 1, !tbaa !20
  %142 = zext i8 %141 to i32
  %143 = getelementptr inbounds nuw i8, ptr %.05758, i64 15
  %144 = load i8, ptr %143, align 1, !tbaa !20
  %145 = zext i8 %144 to i32
  %146 = sub nsw i32 %142, %145
  %147 = tail call i32 @llvm.abs.i32(i32 %146, i1 true)
  %148 = add nsw i32 %139, %147
  %149 = getelementptr inbounds i8, ptr %.05659, i64 %3
  %150 = getelementptr inbounds i8, ptr %.05758, i64 %3
  %151 = add nuw nsw i32 %.061, 1
  %exitcond.not = icmp eq i32 %151, %4
  br i1 %exitcond.not, label %._crit_edge, label %.lr.ph, !llvm.loop !21

._crit_edge:                                      ; preds = %.lr.ph, %5
  %.055.lcssa = phi i32 [ 0, %5 ], [ %148, %.lr.ph ]
  ret i32 %.055.lcssa
}